target datalayout = "e-m:e-p270:32:32-p271:32:32-p272:64:64-i64:64-i128:128-f80:128-n8:16:32:64-S128"
target triple = "x86_64-pc-linux-gnu"

%"class.std::vector" = type { %"struct.std::_Vector_base" }
%"struct.std::_Vector_base" = type { %"struct.std::_Vector_base<long, std::allocator<long>>::_Vector_impl" }
%"struct.std::_Vector_base<long, std::allocator<long>>::_Vector_impl" = type { %"struct.std::_Vector_base<long, std::allocator<long>>::_Vector_impl_data" }
%"struct.std::_Vector_base<long, std::allocator<long>>::_Vector_impl_data" = type { ptr, ptr, ptr }
%"struct.faiss::Index" = type <{ ptr, i32, [4 x i8], i64, i8, i8, [2 x i8], i32, float, [4 x i8] }>
%"struct.faiss::IndexIVF" = type <{ %"struct.faiss::Index.base", [4 x i8], %"struct.faiss::IndexIVFInterface", ptr, i8, [7 x i8], i64, i32, i32, %"struct.faiss::DirectMap", i8, [7 x i8] }>
%"struct.faiss::Index.base" = type <{ ptr, i32, [4 x i8], i64, i8, i8, [2 x i8], i32, float }>
%"struct.faiss::IndexIVFInterface" = type { ptr, %"struct.faiss::Level1Quantizer", i64, i64 }
%"struct.faiss::Level1Quantizer" = type { ptr, i64, i8, i8, [6 x i8], %"struct.faiss::ClusteringParameters", ptr }
%"struct.faiss::ClusteringParameters" = type <{ i32, i32, i8, i8, i8, i8, i8, [3 x i8], i32, i32, i32, [4 x i8], i64, i8, i8, [6 x i8] }>
%"struct.faiss::DirectMap" = type { i32, %"class.std::vector", %"class.std::unordered_map" }
%"class.std::unordered_map" = type { %"class.std::_Hashtable" }
%"class.std::_Hashtable" = type { ptr, i64, %"struct.std::__detail::_Hash_node_base", i64, %"struct.std::__detail::_Prime_rehash_policy", ptr }
%"struct.std::__detail::_Hash_node_base" = type { ptr }
%"struct.std::__detail::_Prime_rehash_policy" = type { float, i64 }

; Function Attrs: mustprogress uwtable
define void @_ZNK5faiss8IndexIVF14copy_subset_toERS0_NS_13InvertedLists13subset_type_tEll(ptr noundef nonnull align 8 dereferenceable(265) %0, ptr noundef nonnull align 8 dereferenceable(265) %1, i32 noundef %2, i64 noundef %3, i64 noundef %4) unnamed_addr #0 align 2 {
  %6 = alloca ptr, align 8
  %7 = alloca ptr, align 8
  %8 = alloca i32, align 4
  %9 = alloca i64, align 8
  %10 = alloca i64, align 8
  store ptr %0, ptr %6, align 8, !tbaa !45
  store ptr %1, ptr %7, align 8, !tbaa !45
  store i32 %2, ptr %8, align 4, !tbaa !132
  store i64 %3, ptr %9, align 8, !tbaa !9
  store i64 %4, ptr %10, align 8, !tbaa !9
  %11 = load ptr, ptr %6, align 8
  %12 = getelementptr inbounds nuw %"struct.faiss::IndexIVF", ptr %11, i32 0, i32 3
  %13 = load ptr, ptr %12, align 8, !tbaa !98
  %14 = load ptr, ptr %7, align 8, !tbaa !45
  %15 = getelementptr inbounds nuw %"struct.faiss::IndexIVF", ptr %14, i32 0, i32 3
  %16 = load ptr, ptr %15, align 8, !tbaa !98
  %17 = load i32, ptr %8, align 4, !tbaa !132
  %18 = load i64, ptr %9, align 8, !tbaa !9
  %19 = load i64, ptr %10, align 8, !tbaa !9
  %20 = call noundef i64 @_ZNK5faiss13InvertedLists14copy_subset_toERS0_NS0_13subset_type_tEll(ptr noundef nonnull align 8 dereferenceable(25) %13, ptr noundef nonnull align 8 dereferenceable(25) %16, i32 noundef %17, i64 noundef %18, i64 noundef %19)
  %21 = load ptr, ptr %7, align 8, !tbaa !45
  %22 = getelementptr inbounds nuw %"struct.faiss::Index", ptr %21, i32 0, i32 3
  %23 = load i64, ptr %22, align 8, !tbaa !100
  %24 = add i64 %23, %20
  store i64 %24, ptr %22, align 8, !tbaa !100
  ret void
}