; Function Attrs: mustprogress uwtable
define void @_ZNK5faiss8IndexIVF14copy_subset_toERS0_NS_13InvertedLists13subset_type_tEll(ptr noundef nonnull readonly align 8 captures(none) dereferenceable(265) %0, ptr noundef nonnull align 8 captures(none) dereferenceable(265) %1, i32 noundef %2, i64 noundef %3, i64 noundef %4) unnamed_addr #0 align 2 {
  %6 = getelementptr inbounds nuw i8, ptr %0, i64 144
  %7 = load ptr, ptr %6, align 8, !tbaa !97
  %8 = getelementptr inbounds nuw i8, ptr %1, i64 144
  %9 = load ptr, ptr %8, align 8, !tbaa !97
  %10 = tail call noundef i64 @_ZNK5faiss13InvertedLists14copy_subset_toERS0_NS0_13subset_type_tEll(ptr noundef nonnull align 8 dereferenceable(25) %7, ptr noundef nonnull align 8 dereferenceable(25) %9, i32 noundef %2, i64 noundef %3, i64 noundef %4)
  %11 = getelementptr inbounds nuw i8, ptr %1, i64 16
  %12 = load i64, ptr %11, align 8, !tbaa !98
  %13 = add i64 %12, %10
  store i64 %13, ptr %11, align 8, !tbaa !98
  ret void
}